target datalayout = "e-m:e-p270:32:32-p271:32:32-p272:64:64-i64:64-i128:128-f80:128-n8:16:32:64-S128"
target triple = "x86_64-pc-linux-gnu"

%struct.ForEachState = type { ptr, i32 }
%union.ListCell = type { ptr }
%struct.Expr = type { i32 }
%struct.List = type { i32, i32, i32, ptr, [0 x %union.ListCell] }
%struct.EquivalenceClass = type { i32, ptr, i32, ptr, ptr, ptr, ptr, i8, i8, i8, i32, i32, i32, ptr }
%struct.EquivalenceMember = type { i32, ptr, ptr, i8, i8, i32, ptr, ptr }
%struct.Node = type { i32 }
%struct.RelabelType = type { %struct.Expr, ptr, i32, i32, i32, i32, i32 }

; Function Attrs: nounwind uwtable
define dso_local ptr @find_ec_member_matching_expr(ptr noundef %0, ptr noundef %1, ptr noundef %2) #0 {
  %4 = alloca ptr, align 8
  %5 = alloca ptr, align 8
  %6 = alloca ptr, align 8
  %7 = alloca ptr, align 8
  %8 = alloca ptr, align 8
  %9 = alloca %struct.ForEachState, align 8
  %10 = alloca i32, align 4
  %11 = alloca ptr, align 8
  %12 = alloca ptr, align 8
  store ptr %0, ptr %5, align 8
  store ptr %1, ptr %6, align 8
  store ptr %2, ptr %7, align 8
  call void @llvm.lifetime.start.p0(i64 8, ptr %8) #6
  br label %13

13:                                               ; preds = %23, %3
  %14 = load ptr, ptr %6, align 8
  %15 = icmp ne ptr %14, null
  br i1 %15, label %16, label %21

16:                                               ; preds = %13
  %17 = load ptr, ptr %6, align 8
  %18 = getelementptr inbounds nuw %struct.Node, ptr %17, i32 0, i32 0
  %19 = load i32, ptr %18, align 4
  %20 = icmp eq i32 %19, 27
  br label %21

21:                                               ; preds = %16, %13
  %22 = phi i1 [ false, %13 ], [ %20, %16 ]
  br i1 %22, label %23, label %27

23:                                               ; preds = %21
  %24 = load ptr, ptr %6, align 8
  %25 = getelementptr inbounds nuw %struct.RelabelType, ptr %24, i32 0, i32 1
  %26 = load ptr, ptr %25, align 8
  store ptr %26, ptr %6, align 8
  br label %13, !llvm.loop !12

27:                                               ; preds = %21
  call void @llvm.lifetime.start.p0(i64 16, ptr %9) #6
  %28 = getelementptr inbounds nuw %struct.ForEachState, ptr %9, i32 0, i32 0
  %29 = load ptr, ptr %5, align 8
  %30 = getelementptr inbounds nuw %struct.EquivalenceClass, ptr %29, i32 0, i32 3
  %31 = load ptr, ptr %30, align 8
  store ptr %31, ptr %28, align 8
  %32 = getelementptr inbounds nuw %struct.ForEachState, ptr %9, i32 0, i32 1
  store i32 0, ptr %32, align 8
  %33 = getelementptr i8, ptr %9, i64 12
  call void @llvm.memset.p0.i64(ptr align 4 %33, i8 0, i64 4, i1 false)
  br label %34

34:                                               ; preds = %108, %27
  %35 = getelementptr inbounds nuw %struct.ForEachState, ptr %9, i32 0, i32 0
  %36 = load ptr, ptr %35, align 8
  %37 = icmp ne ptr %36, null
  br i1 %37, label %38, label %55

38:                                               ; preds = %34
  %39 = getelementptr inbounds nuw %struct.ForEachState, ptr %9, i32 0, i32 1
  %40 = load i32, ptr %39, align 8
  %41 = getelementptr inbounds nuw %struct.ForEachState, ptr %9, i32 0, i32 0
  %42 = load ptr, ptr %41, align 8
  %43 = getelementptr inbounds nuw %struct.List, ptr %42, i32 0, i32 1
  %44 = load i32, ptr %43, align 4
  %45 = icmp slt i32 %40, %44
  br i1 %45, label %46, label %55

46:                                               ; preds = %38
  %47 = getelementptr inbounds nuw %struct.ForEachState, ptr %9, i32 0, i32 0
  %48 = load ptr, ptr %47, align 8
  %49 = getelementptr inbounds nuw %struct.List, ptr %48, i32 0, i32 3
  %50 = load ptr, ptr %49, align 8
  %51 = getelementptr inbounds nuw %struct.ForEachState, ptr %9, i32 0, i32 1
  %52 = load i32, ptr %51, align 8
  %53 = sext i32 %52 to i64
  %54 = getelementptr inbounds %union.ListCell, ptr %50, i64 %53
  store ptr %54, ptr %8, align 8
  br label %56

55:                                               ; preds = %38, %34
  store ptr null, ptr %8, align 8
  br label %56

56:                                               ; preds = %55, %46
  %57 = phi i32 [ 1, %46 ], [ 0, %55 ]
  %58 = icmp ne i32 %57, 0
  br i1 %58, label %60, label %59

59:                                               ; preds = %56
  store i32 4, ptr %10, align 4
  br label %112

60:                                               ; preds = %56
  call void @llvm.lifetime.start.p0(i64 8, ptr %11) #6
  %61 = load ptr, ptr %8, align 8
  %62 = load ptr, ptr %61, align 8
  store ptr %62, ptr %11, align 8
  call void @llvm.lifetime.start.p0(i64 8, ptr %12) #6
  %63 = load ptr, ptr %11, align 8
  %64 = getelementptr inbounds nuw %struct.EquivalenceMember, ptr %63, i32 0, i32 3
  %65 = load i8, ptr %64, align 8, !range !4, !noundef !5
  %66 = trunc i8 %65 to i1
  br i1 %66, label %67, label %68

67:                                               ; preds = %60
  store i32 6, ptr %10, align 4
  br label %105

68:                                               ; preds = %60
  %69 = load ptr, ptr %11, align 8
  %70 = getelementptr inbounds nuw %struct.EquivalenceMember, ptr %69, i32 0, i32 4
  %71 = load i8, ptr %70, align 1, !range !4, !noundef !5
  %72 = trunc i8 %71 to i1
  br i1 %72, label %73, label %80

73:                                               ; preds = %68
  %74 = load ptr, ptr %11, align 8
  %75 = getelementptr inbounds nuw %struct.EquivalenceMember, ptr %74, i32 0, i32 2
  %76 = load ptr, ptr %75, align 8
  %77 = load ptr, ptr %7, align 8
  %78 = call zeroext i1 @bms_is_subset(ptr noundef %76, ptr noundef %77)
  br i1 %78, label %80, label %79

79:                                               ; preds = %73
  store i32 6, ptr %10, align 4
  br label %105

80:                                               ; preds = %73, %68
  %81 = load ptr, ptr %11, align 8
  %82 = getelementptr inbounds nuw %struct.EquivalenceMember, ptr %81, i32 0, i32 1
  %83 = load ptr, ptr %82, align 8
  store ptr %83, ptr %12, align 8
  br label %84

84:                                               ; preds = %94, %80
  %85 = load ptr, ptr %12, align 8
  %86 = icmp ne ptr %85, null
  br i1 %86, label %87, label %92

87:                                               ; preds = %84
  %88 = load ptr, ptr %12, align 8
  %89 = getelementptr inbounds nuw %struct.Node, ptr %88, i32 0, i32 0
  %90 = load i32, ptr %89, align 4
  %91 = icmp eq i32 %90, 27
  br label %92

92:                                               ; preds = %87, %84
  %93 = phi i1 [ false, %84 ], [ %91, %87 ]
  br i1 %93, label %94, label %98

94:                                               ; preds = %92
  %95 = load ptr, ptr %12, align 8
  %96 = getelementptr inbounds nuw %struct.RelabelType, ptr %95, i32 0, i32 1
  %97 = load ptr, ptr %96, align 8
  store ptr %97, ptr %12, align 8
  br label %84, !llvm.loop !13

98:                                               ; preds = %92
  %99 = load ptr, ptr %12, align 8
  %100 = load ptr, ptr %6, align 8
  %101 = call zeroext i1 @equal(ptr noundef %99, ptr noundef %100)
  br i1 %101, label %102, label %104

102:                                              ; preds = %98
  %103 = load ptr, ptr %11, align 8
  store ptr %103, ptr %4, align 8
  store i32 1, ptr %10, align 4
  br label %105

104:                                              ; preds = %98
  store i32 0, ptr %10, align 4
  br label %105

105:                                              ; preds = %104, %102, %79, %67
  call void @llvm.lifetime.end.p0(i64 8, ptr %12) #6
  call void @llvm.lifetime.end.p0(i64 8, ptr %11) #6
  %106 = load i32, ptr %10, align 4
  switch i32 %106, label %112 [
    i32 0, label %107
    i32 6, label %108
  ]

107:                                              ; preds = %105
  br label %108

108:                                              ; preds = %107, %105
  %109 = getelementptr inbounds nuw %struct.ForEachState, ptr %9, i32 0, i32 1
  %110 = load i32, ptr %109, align 8
  %111 = add i32 %110, 1
  store i32 %111, ptr %109, align 8
  br label %34, !llvm.loop !14

112:                                              ; preds = %105, %59
  call void @llvm.lifetime.end.p0(i64 16, ptr %9) #6
  %113 = load i32, ptr %10, align 4
  switch i32 %113, label %115 [
    i32 4, label %114
  ]

114:                                              ; preds = %112
  store ptr null, ptr %4, align 8
  store i32 1, ptr %10, align 4
  br label %115

115:                                              ; preds = %114, %112
  call void @llvm.lifetime.end.p0(i64 8, ptr %8) #6
  %116 = load ptr, ptr %4, align 8
  ret ptr %116
}