; Function Attrs: nounwind uwtable
define dso_local ptr @find_ec_member_matching_expr(ptr noundef readonly captures(none) %0, ptr noundef %1, ptr noundef %2) local_unnamed_addr #0 {
  %.not44 = icmp eq ptr %1, null
  br i1 %.not44, label %.critedge, label %.lr.ph

.lr.ph:                                           ; preds = %3, %6
  %.02745 = phi ptr [ %8, %6 ], [ %1, %3 ]
  %4 = load i32, ptr %.02745, align 4
  %5 = icmp eq i32 %4, 27
  br i1 %5, label %6, label %.critedge

6:                                                ; preds = %.lr.ph
  %7 = getelementptr inbounds nuw i8, ptr %.02745, i64 8
  %8 = load ptr, ptr %7, align 8
  %.not = icmp eq ptr %8, null
  br i1 %.not, label %.critedge, label %.lr.ph, !llvm.loop !8

.critedge:                                        ; preds = %.lr.ph, %6, %3
  %.027.lcssa = phi ptr [ null, %3 ], [ null, %6 ], [ %.02745, %.lr.ph ]
  %9 = getelementptr inbounds nuw i8, ptr %0, i64 24
  %10 = load ptr, ptr %9, align 8
  %11 = getelementptr inbounds nuw i8, ptr %10, i64 4
  %.not30 = icmp eq ptr %10, null
  br i1 %.not30, label %._crit_edge51, label %.lr.ph49

.lr.ph49:                                         ; preds = %.critedge
  %12 = getelementptr inbounds nuw i8, ptr %10, i64 16
  %13 = load i32, ptr %11, align 4
  %14 = icmp sgt i32 %13, 0
  br i1 %14, label %.lr.ph57, label %._crit_edge51

.lr.ph57:                                         ; preds = %.lr.ph49, %34
  %indvars.iv = phi i64 [ %indvars.iv.next, %34 ], [ 0, %.lr.ph49 ]
  %15 = load ptr, ptr %12, align 8
  %16 = getelementptr inbounds nuw %union.ListCell, ptr %15, i64 %indvars.iv
  %17 = load ptr, ptr %16, align 8
  %18 = getelementptr inbounds nuw i8, ptr %17, i64 24
  %19 = load i8, ptr %18, align 8, !range !4, !noundef !5
  %20 = trunc nuw i8 %19 to i1
  br i1 %20, label %34, label %21

21:                                               ; preds = %.lr.ph57
  %22 = getelementptr inbounds nuw i8, ptr %17, i64 25
  %23 = load i8, ptr %22, align 1, !range !4, !noundef !5
  %24 = trunc nuw i8 %23 to i1
  br i1 %24, label %25, label %.preheader

25:                                               ; preds = %21
  %26 = getelementptr inbounds nuw i8, ptr %17, i64 16
  %27 = load ptr, ptr %26, align 8
  %28 = tail call zeroext i1 @bms_is_subset(ptr noundef %27, ptr noundef %2) #8
  br i1 %28, label %.preheader, label %34

.preheader:                                       ; preds = %25, %21
  br label %29

29:                                               ; preds = %.preheader, %30
  %.pn = phi ptr [ %.0, %30 ], [ %17, %.preheader ]
  %.0.in = getelementptr inbounds nuw i8, ptr %.pn, i64 8
  %.0 = load ptr, ptr %.0.in, align 8
  %.not32 = icmp eq ptr %.0, null
  br i1 %.not32, label %.critedge2, label %30

30:                                               ; preds = %29
  %31 = load i32, ptr %.0, align 4
  %32 = icmp eq i32 %31, 27
  br i1 %32, label %29, label %.critedge2, !llvm.loop !9

.critedge2:                                       ; preds = %29, %30
  %33 = tail call zeroext i1 @equal(ptr noundef %.0, ptr noundef %.027.lcssa) #8
  br i1 %33, label %._crit_edge51, label %34

34:                                               ; preds = %.lr.ph57, %25, %.critedge2
  %indvars.iv.next = add nuw nsw i64 %indvars.iv, 1
  %35 = load i32, ptr %11, align 4
  %36 = sext i32 %35 to i64
  %37 = icmp slt i64 %indvars.iv.next, %36
  br i1 %37, label %.lr.ph57, label %._crit_edge51

._crit_edge51:                                    ; preds = %.critedge2, %34, %.lr.ph49, %.critedge
  %38 = phi ptr [ null, %.critedge ], [ null, %.lr.ph49 ], [ null, %34 ], [ %17, %.critedge2 ]
  ret ptr %38
}